; Function Attrs: mustprogress uwtable
define internal void @_ZN9grpc_core12_GLOBAL__N_122resolver_enqueue_shortEP12grpc_closureN4absl12lts_202308026StatusE(ptr noundef %closure, ptr nocapture noundef readonly %error) #3 personality ptr @__gxx_personality_v0 {
entry:
  %agg.tmp = alloca %"class.absl::lts_20230802::Status", align 8
  %0 = load ptr, ptr getelementptr inbounds ([2 x ptr], ptr @_ZN9grpc_core12_GLOBAL__N_19executorsE, i64 0, i64 1), align 8
  %1 = load i64, ptr %error, align 8
  store i64 %1, ptr %agg.tmp, align 8
  %and.i.i.i = and i64 %1, 1
  %cmp.i.i.i = icmp eq i64 %and.i.i.i, 0
  br i1 %cmp.i.i.i, label %_ZN4absl12lts_202308026StatusC2ERKS1_.exit, label %if.then.i.i

if.then.i.i:                                      ; preds = %entry
  %sub.i.i.i = add nsw i64 %1, -1
  %2 = inttoptr i64 %sub.i.i.i to ptr
  %3 = atomicrmw add ptr %2, i32 1 monotonic, align 4
  br label %_ZN4absl12lts_202308026StatusC2ERKS1_.exit

_ZN4absl12lts_202308026StatusC2ERKS1_.exit:       ; preds = %entry, %if.then.i.i
  invoke void @_ZN9grpc_core8Executor7EnqueueEP12grpc_closureN4absl12lts_202308026StatusEb(ptr noundef nonnull align 8 dereferenceable(40) %0, ptr noundef %closure, ptr noundef nonnull %agg.tmp, i1 noundef zeroext true)
          to label %invoke.cont unwind label %lpad

invoke.cont:                                      ; preds = %_ZN4absl12lts_202308026StatusC2ERKS1_.exit
  br i1 %cmp.i.i.i, label %_ZN4absl12lts_202308026StatusD2Ev.exit, label %if.then.i.i3

if.then.i.i3:                                     ; preds = %invoke.cont
  invoke void @_ZN4absl12lts_202308026Status15UnrefNonInlinedEm(i64 noundef %1)
          to label %_ZN4absl12lts_202308026StatusD2Ev.exit unwind label %terminate.lpad.i

terminate.lpad.i:                                 ; preds = %if.then.i.i3
  %4 = landingpad { ptr, i32 }
          catch ptr null
  %5 = extractvalue { ptr, i32 } %4, 0
  tail call void @__clang_call_terminate(ptr %5) #21
  unreachable

_ZN4absl12lts_202308026StatusD2Ev.exit:           ; preds = %invoke.cont, %if.then.i.i3
  ret void

lpad:                                             ; preds = %_ZN4absl12lts_202308026StatusC2ERKS1_.exit
  %6 = landingpad { ptr, i32 }
          cleanup
  call void @_ZN4absl12lts_202308026StatusD2Ev(ptr noundef nonnull align 8 dereferenceable(8) %agg.tmp) #22
  resume { ptr, i32 } %6
}